; Function Attrs: mustprogress nounwind uwtable
define void @_ZN7rocksdb23CompressionContextCacheD2Ev(ptr noundef nonnull readonly align 8 captures(none) dereferenceable(8) %0) unnamed_addr #6 align 2 personality ptr @__gxx_personality_v0 {
  %2 = load ptr, ptr %0, align 8, !tbaa !4
  %3 = icmp eq ptr %2, null
  br i1 %3, label %25, label %4

4:                                                ; preds = %1
  %5 = load ptr, ptr %2, align 8, !tbaa !24
  %.not.i.i.i = icmp eq ptr %5, null
  br i1 %.not.i.i.i, label %_ZN7rocksdb23CompressionContextCache3RepD2Ev.exit, label %6

6:                                                ; preds = %4
  %7 = getelementptr inbounds i8, ptr %5, i64 -8
  %8 = load i64, ptr %7, align 8
  %9 = icmp eq i64 %8, 0
  br i1 %9, label %_ZNKSt14default_deleteIA_N7rocksdb17compression_cache14ZSTDCachedDataEEclIS2_EENSt9enable_ifIXsr14is_convertibleIPA_T_PS3_EE5valueEvE4typeEPS7_.exit.i.i.i, label %.preheader.preheader.i.i.i.i

.preheader.preheader.i.i.i.i:                     ; preds = %6
  %10 = getelementptr inbounds %"struct.rocksdb::compression_cache::ZSTDCachedData", ptr %5, i64 %8
  br label %.preheader.i.i.i.i

.preheader.i.i.i.i:                               ; preds = %_ZN7rocksdb17compression_cache14ZSTDCachedDataD2Ev.exit.i.i.i.i, %.preheader.preheader.i.i.i.i
  %11 = phi ptr [ %12, %_ZN7rocksdb17compression_cache14ZSTDCachedDataD2Ev.exit.i.i.i.i ], [ %10, %.preheader.preheader.i.i.i.i ]
  %12 = getelementptr inbounds i8, ptr %11, i64 -64
  %13 = load ptr, ptr %12, align 8, !tbaa !28
  %.not.i.i.i.i.i.i = icmp ne ptr %13, null
  %14 = getelementptr inbounds i8, ptr %11, i64 -56
  %15 = load i64, ptr %14, align 8
  %16 = icmp eq i64 %15, -1
  %or.cond.i.i.i.i.i.i = select i1 %.not.i.i.i.i.i.i, i1 %16, i1 false
  br i1 %or.cond.i.i.i.i.i.i, label %17, label %_ZN7rocksdb17compression_cache14ZSTDCachedDataD2Ev.exit.i.i.i.i

17:                                               ; preds = %.preheader.i.i.i.i
  %18 = invoke i64 @ZSTD_freeDCtx(ptr noundef nonnull %13)
          to label %_ZN7rocksdb17compression_cache14ZSTDCachedDataD2Ev.exit.i.i.i.i unwind label %19

19:                                               ; preds = %17
  %20 = landingpad { ptr, i32 }
          catch ptr null
  %21 = extractvalue { ptr, i32 } %20, 0
  tail call void @__clang_call_terminate(ptr %21) #16
  unreachable

_ZN7rocksdb17compression_cache14ZSTDCachedDataD2Ev.exit.i.i.i.i: ; preds = %17, %.preheader.i.i.i.i
  %22 = icmp eq ptr %12, %5
  br i1 %22, label %_ZNKSt14default_deleteIA_N7rocksdb17compression_cache14ZSTDCachedDataEEclIS2_EENSt9enable_ifIXsr14is_convertibleIPA_T_PS3_EE5valueEvE4typeEPS7_.exit.i.i.i, label %.preheader.i.i.i.i

_ZNKSt14default_deleteIA_N7rocksdb17compression_cache14ZSTDCachedDataEEclIS2_EENSt9enable_ifIXsr14is_convertibleIPA_T_PS3_EE5valueEvE4typeEPS7_.exit.i.i.i: ; preds = %_ZN7rocksdb17compression_cache14ZSTDCachedDataD2Ev.exit.i.i.i.i, %6
  %23 = shl i64 %8, 6
  %24 = or disjoint i64 %23, 8
  tail call void @_ZdaPvm(ptr noundef nonnull %7, i64 noundef %24) #14
  br label %_ZN7rocksdb23CompressionContextCache3RepD2Ev.exit

_ZN7rocksdb23CompressionContextCache3RepD2Ev.exit: ; preds = %4, %_ZNKSt14default_deleteIA_N7rocksdb17compression_cache14ZSTDCachedDataEEclIS2_EENSt9enable_ifIXsr14is_convertibleIPA_T_PS3_EE5valueEvE4typeEPS7_.exit.i.i.i
  tail call void @_ZdlPvm(ptr noundef %2, i64 noundef 16) #14
  br label %25

25:                                               ; preds = %_ZN7rocksdb23CompressionContextCache3RepD2Ev.exit, %1
  ret void
}